; Function Attrs: mustprogress uwtable
define internal noundef i32 @"_ZNSt17_Function_handlerIFiPKN7rocksdb12FileMetaDataES3_EZNS0_11FileIndexer11UpdateIndexEPNS0_5ArenaEmPSt6vectorIPS1_SaIS9_EEE3$_0E9_M_invokeERKSt9_Any_dataOS3_SI_"(ptr noundef nonnull readonly align 8 captures(none) dereferenceable(16) %0, ptr noundef nonnull readonly align 8 captures(none) dereferenceable(8) %1, ptr noundef nonnull readonly align 8 captures(none) dereferenceable(8) %2) #7 align 2 personality ptr @__gxx_personality_v0 {
  %4 = alloca %"class.rocksdb::Slice", align 8
  %5 = alloca %"class.rocksdb::Slice", align 8
  %.val = load ptr, ptr %0, align 8, !tbaa !73
  %.val3 = load ptr, ptr %1, align 8, !tbaa !58
  %.val4 = load ptr, ptr %2, align 8, !tbaa !58
  %6 = getelementptr i8, ptr %.val, i64 8
  %.val.val = load ptr, ptr %6, align 8, !tbaa !22
  %7 = getelementptr i8, ptr %.val3, i64 40
  %.val3.val = load ptr, ptr %7, align 8, !tbaa !75
  %8 = getelementptr i8, ptr %.val3, i64 48
  %.val3.val5 = load i64, ptr %8, align 8, !tbaa !79
  %9 = getelementptr i8, ptr %.val4, i64 72
  %.val4.val = load ptr, ptr %9, align 8, !tbaa !75
  %10 = getelementptr i8, ptr %.val4, i64 80
  %.val4.val6 = load i64, ptr %10, align 8, !tbaa !79
  call void @llvm.lifetime.start.p0(i64 16, ptr nonnull %4) #23
  %11 = add i64 %.val3.val5, -8
  store ptr %.val3.val, ptr %4, align 8
  %12 = getelementptr inbounds nuw i8, ptr %4, i64 8
  store i64 %11, ptr %12, align 8
  call void @llvm.lifetime.start.p0(i64 16, ptr nonnull %5) #23
  %13 = add i64 %.val4.val6, -8
  store ptr %.val4.val, ptr %5, align 8
  %14 = getelementptr inbounds nuw i8, ptr %5, i64 8
  store i64 %13, ptr %14, align 8
  %15 = load ptr, ptr %.val.val, align 8, !tbaa !42
  %16 = getelementptr inbounds nuw i8, ptr %15, i64 232
  %17 = load ptr, ptr %16, align 8
  %18 = call noundef i32 %17(ptr noundef nonnull align 8 dereferenceable(48) %.val.val, ptr noundef nonnull align 8 dereferenceable(16) %4, i1 noundef zeroext true, ptr noundef nonnull align 8 dereferenceable(16) %5, i1 noundef zeroext true)
  call void @llvm.lifetime.end.p0(i64 16, ptr nonnull %5) #23
  call void @llvm.lifetime.end.p0(i64 16, ptr nonnull %4) #23
  ret i32 %18
}